; Function Attrs: nounwind uwtable
define hidden void @zif_debug_backtrace(ptr noundef readonly captures(none) %0, ptr noundef captures(none) %1) #0 {
  %3 = alloca i64, align 8
  %4 = alloca i64, align 8
  call void @llvm.lifetime.start.p0(i64 8, ptr nonnull %3) #14
  store i64 1, ptr %3, align 8, !tbaa !61
  call void @llvm.lifetime.start.p0(i64 8, ptr nonnull %4) #14
  store i64 0, ptr %4, align 8, !tbaa !61
  %5 = getelementptr inbounds nuw i8, ptr %0, i64 44
  %6 = load i32, ptr %5, align 4, !tbaa !28
  %7 = call i32 (i32, ptr, ...) @zend_parse_parameters(i32 noundef %6, ptr noundef nonnull @.str.46, ptr noundef nonnull %3, ptr noundef nonnull %4) #14
  %8 = icmp eq i32 %7, -1
  br i1 %8, label %9, label %12

9:                                                ; preds = %2
  %10 = load ptr, ptr getelementptr inbounds nuw (i8, ptr @executor_globals, i64 960), align 8, !tbaa !67
  %11 = icmp ne ptr %10, null
  call void @llvm.assume(i1 %11)
  br label %17

12:                                               ; preds = %2
  %13 = load i64, ptr %3, align 8, !tbaa !61
  %14 = trunc i64 %13 to i32
  %15 = load i64, ptr %4, align 8, !tbaa !61
  %16 = trunc i64 %15 to i32
  call void @zend_fetch_debug_backtrace(ptr noundef %1, i32 noundef 1, i32 noundef %14, i32 noundef %16)
  br label %17

17:                                               ; preds = %12, %9
  call void @llvm.lifetime.end.p0(i64 8, ptr nonnull %4) #14
  call void @llvm.lifetime.end.p0(i64 8, ptr nonnull %3) #14
  ret void
}